; Function Attrs: mustprogress uwtable
define internal void @"_ZZN9grpc_core15FilterStackCall10StartBatchEPK7grpc_opmPvbEN3$_48__invokeES4_N4absl12lts_202308026StatusE"(ptr noundef %bctl, ptr nocapture noundef readonly %error) #3 align 2 personality ptr @__gxx_personality_v0 {
entry:
  %agg.tmp.i = alloca %"class.absl::lts_20230802::Status", align 8
  %error.val = load i64, ptr %error, align 8
  call void @llvm.lifetime.start.p0(i64 8, ptr nonnull %agg.tmp.i)
  store i64 %error.val, ptr %agg.tmp.i, align 8
  %and.i.i.i.i = and i64 %error.val, 1
  %cmp.i.i.i.i = icmp eq i64 %and.i.i.i.i, 0
  br i1 %cmp.i.i.i.i, label %_ZN4absl12lts_202308026StatusC2ERKS1_.exit.i, label %if.then.i.i.i

if.then.i.i.i:                                    ; preds = %entry
  %sub.i.i.i.i = add nsw i64 %error.val, -1
  %0 = inttoptr i64 %sub.i.i.i.i to ptr
  %1 = atomicrmw add ptr %0, i32 1 monotonic, align 4
  br label %_ZN4absl12lts_202308026StatusC2ERKS1_.exit.i

_ZN4absl12lts_202308026StatusC2ERKS1_.exit.i:     ; preds = %if.then.i.i.i, %entry
  invoke void @_ZN9grpc_core15FilterStackCall12BatchControl11FinishBatchEN4absl12lts_202308026StatusE(ptr noundef nonnull align 8 dereferenceable(208) %bctl, ptr noundef nonnull %agg.tmp.i)
          to label %invoke.cont.i unwind label %lpad.i

invoke.cont.i:                                    ; preds = %_ZN4absl12lts_202308026StatusC2ERKS1_.exit.i
  br i1 %cmp.i.i.i.i, label %"_ZZN9grpc_core15FilterStackCall10StartBatchEPK7grpc_opmPvbENK3$_4clES4_N4absl12lts_202308026StatusE.exit", label %if.then.i.i3.i

if.then.i.i3.i:                                   ; preds = %invoke.cont.i
  invoke void @_ZN4absl12lts_202308026Status15UnrefNonInlinedEm(i64 noundef %error.val)
          to label %"_ZZN9grpc_core15FilterStackCall10StartBatchEPK7grpc_opmPvbENK3$_4clES4_N4absl12lts_202308026StatusE.exit" unwind label %terminate.lpad.i.i

terminate.lpad.i.i:                               ; preds = %if.then.i.i3.i
  %2 = landingpad { ptr, i32 }
          catch ptr null
  %3 = extractvalue { ptr, i32 } %2, 0
  tail call void @__clang_call_terminate(ptr %3) #30
  unreachable

lpad.i:                                           ; preds = %_ZN4absl12lts_202308026StatusC2ERKS1_.exit.i
  %4 = landingpad { ptr, i32 }
          cleanup
  call void @_ZN4absl12lts_202308026StatusD2Ev(ptr noundef nonnull align 8 dereferenceable(8) %agg.tmp.i) #28
  resume { ptr, i32 } %4

"_ZZN9grpc_core15FilterStackCall10StartBatchEPK7grpc_opmPvbENK3$_4clES4_N4absl12lts_202308026StatusE.exit": ; preds = %invoke.cont.i, %if.then.i.i3.i
  call void @llvm.lifetime.end.p0(i64 8, ptr nonnull %agg.tmp.i)
  ret void
}